; Function Attrs: nounwind uwtable
define internal ptr @cmath_sinh(ptr readnone captures(none) %0, ptr noundef %1) #0 {
  %3 = tail call { double, double } @PyComplex_AsCComplex(ptr noundef %1) #11
  %4 = tail call ptr @PyErr_Occurred() #11
  %.not = icmp eq ptr %4, null
  br i1 %.not, label %5, label %19

5:                                                ; preds = %2
  %6 = extractvalue { double, double } %3, 1
  %7 = extractvalue { double, double } %3, 0
  %8 = tail call ptr @__errno_location() #12
  store i32 0, ptr %8, align 4, !tbaa !3
  %9 = tail call fastcc { double, double } @cmath_sinh_impl(double %7, double %6)
  %10 = load i32, ptr %8, align 4, !tbaa !3
  switch i32 %10, label %15 [
    i32 33, label %11
    i32 34, label %13
  ]

11:                                               ; preds = %5
  %12 = load ptr, ptr @PyExc_ValueError, align 8, !tbaa !9
  tail call void @PyErr_SetString(ptr noundef %12, ptr noundef nonnull @.str.25) #11
  br label %19

13:                                               ; preds = %5
  %14 = load ptr, ptr @PyExc_OverflowError, align 8, !tbaa !9
  tail call void @PyErr_SetString(ptr noundef %14, ptr noundef nonnull @.str.26) #11
  br label %19

15:                                               ; preds = %5
  %16 = extractvalue { double, double } %9, 1
  %17 = extractvalue { double, double } %9, 0
  %18 = tail call ptr @PyComplex_FromCComplex(double %17, double %16) #11
  br label %19

19:                                               ; preds = %2, %15, %13, %11
  %.0 = phi ptr [ null, %2 ], [ null, %11 ], [ null, %13 ], [ %18, %15 ]
  ret ptr %.0
}